; Function Attrs: nounwind uwtable
define ptr @l_Lean_Omega_IntList_get(ptr noundef %0, ptr noundef %1) local_unnamed_addr #0 {
  %3 = tail call ptr @l___private_Init_GetElem_0__List_get_x3fInternal___rarg(ptr noundef %0, ptr noundef %1) #3
  %4 = ptrtoint ptr %3 to i64
  %5 = and i64 %4, 1
  %.not.i9 = icmp eq i64 %5, 0
  br i1 %.not.i9, label %9, label %6

6:                                                ; preds = %2
  %7 = lshr i64 %4, 1
  %8 = trunc i64 %7 to i32
  br label %lean_obj_tag.exit

9:                                                ; preds = %2
  %10 = getelementptr i8, ptr %3, i64 4
  %.val.i = load i32, ptr %10, align 4
  %11 = lshr i32 %.val.i, 24
  br label %lean_obj_tag.exit

lean_obj_tag.exit:                                ; preds = %6, %9
  %.0.i = phi i32 [ %8, %6 ], [ %11, %9 ]
  %12 = icmp eq i32 %.0.i, 0
  br i1 %12, label %13, label %15

13:                                               ; preds = %lean_obj_tag.exit
  %14 = load ptr, ptr @l_Lean_Omega_IntList_get___closed__1, align 8, !tbaa !4
  br label %lean_dec.exit

15:                                               ; preds = %lean_obj_tag.exit
  %16 = getelementptr inbounds nuw i8, ptr %3, i64 8
  %17 = load ptr, ptr %16, align 8, !tbaa !4
  %18 = ptrtoint ptr %17 to i64
  %19 = and i64 %18, 1
  %.not = icmp eq i64 %19, 0
  br i1 %.not, label %20, label %lean_inc.exit

20:                                               ; preds = %15
  %.val.i10 = load i32, ptr %17, align 4, !tbaa !8
  %21 = icmp sgt i32 %.val.i10, 0
  br i1 %21, label %22, label %24, !prof !11

22:                                               ; preds = %20
  %23 = add nuw i32 %.val.i10, 1
  store i32 %23, ptr %17, align 4, !tbaa !8
  br label %lean_inc.exit

24:                                               ; preds = %20
  %.not.i11 = icmp eq i32 %.val.i10, 0
  br i1 %.not.i11, label %lean_inc.exit, label %25

25:                                               ; preds = %24
  tail call void @lean_inc_ref_cold(ptr noundef nonnull %17) #3
  br label %lean_inc.exit

lean_inc.exit:                                    ; preds = %25, %24, %22, %15
  br i1 %.not.i9, label %26, label %lean_dec.exit

26:                                               ; preds = %lean_inc.exit
  %27 = load i32, ptr %3, align 4, !tbaa !8
  %28 = icmp sgt i32 %27, 1
  br i1 %28, label %29, label %31, !prof !11

29:                                               ; preds = %26
  %30 = add nsw i32 %27, -1
  store i32 %30, ptr %3, align 4, !tbaa !8
  br label %lean_dec.exit

31:                                               ; preds = %26
  %.not.i = icmp eq i32 %27, 0
  br i1 %.not.i, label %lean_dec.exit, label %32

32:                                               ; preds = %31
  tail call void @lean_dec_ref_cold(ptr noundef nonnull %3) #3
  br label %lean_dec.exit

lean_dec.exit:                                    ; preds = %lean_inc.exit, %29, %31, %32, %13
  %.0 = phi ptr [ %14, %13 ], [ %17, %32 ], [ %17, %31 ], [ %17, %29 ], [ %17, %lean_inc.exit ]
  ret ptr %.0
}